; Function Attrs: mustprogress nounwind uwtable
define dso_local void @_ZNSt3__110ostrstreamD2Ev(ptr noundef nonnull align 8 dereferenceable(104) initializes((0, 16)) %0, ptr noundef %1) unnamed_addr #0 align 2 personality ptr @__gxx_personality_v0 {
  %3 = load ptr, ptr %1, align 8
  store ptr %3, ptr %0, align 8, !tbaa !4
  %4 = getelementptr inbounds nuw i8, ptr %1, i64 24
  %5 = load ptr, ptr %4, align 8
  %6 = getelementptr i8, ptr %3, i64 -24
  %7 = load i64, ptr %6, align 8
  %8 = getelementptr inbounds i8, ptr %0, i64 %7
  store ptr %5, ptr %8, align 8, !tbaa !4
  %9 = getelementptr inbounds nuw i8, ptr %0, i64 8
  store ptr getelementptr inbounds nuw inrange(-16, 112) (i8, ptr @_ZTVNSt3__112strstreambufE, i64 16), ptr %9, align 8, !tbaa !4
  %10 = getelementptr inbounds nuw i8, ptr %0, i64 24
  %11 = load ptr, ptr %10, align 8, !tbaa !23
  %.not.i = icmp eq ptr %11, null
  br i1 %.not.i, label %_ZNSt3__112strstreambufD2Ev.exit, label %12

12:                                               ; preds = %2
  %13 = getelementptr inbounds nuw i8, ptr %0, i64 72
  %14 = load i32, ptr %13, align 8, !tbaa !7
  %15 = and i32 %14, 9
  %or.cond.i = icmp eq i32 %15, 1
  br i1 %or.cond.i, label %16, label %_ZNSt3__112strstreambufD2Ev.exit

16:                                               ; preds = %12
  %17 = getelementptr inbounds nuw i8, ptr %0, i64 96
  %18 = load ptr, ptr %17, align 8, !tbaa !19
  %.not3.i = icmp eq ptr %18, null
  br i1 %.not3.i, label %20, label %19

19:                                               ; preds = %16
  invoke void %18(ptr noundef nonnull %11)
          to label %_ZNSt3__112strstreambufD2Ev.exit unwind label %21

20:                                               ; preds = %16
  tail call void @_ZdaPv(ptr noundef nonnull %11) #20
  br label %_ZNSt3__112strstreambufD2Ev.exit

21:                                               ; preds = %19
  %22 = landingpad { ptr, i32 }
          catch ptr null
  %23 = extractvalue { ptr, i32 } %22, 0
  tail call void @__clang_call_terminate(ptr %23) #21
  unreachable

_ZNSt3__112strstreambufD2Ev.exit:                 ; preds = %2, %12, %19, %20
  store ptr getelementptr inbounds nuw inrange(-16, 112) (i8, ptr @_ZTVNSt3__115basic_streambufIcNS_11char_traitsIcEEEE, i64 16), ptr %9, align 8, !tbaa !4
  %24 = getelementptr inbounds nuw i8, ptr %0, i64 16
  tail call void @_ZNSt3__16localeD1Ev(ptr noundef nonnull align 8 dereferenceable(8) %24) #18
  %25 = getelementptr inbounds nuw i8, ptr %1, i64 8
  tail call void @_ZNSt3__113basic_ostreamIcNS_11char_traitsIcEEED2Ev(ptr noundef nonnull align 8 dereferenceable(8) %0, ptr noundef nonnull %25) #18
  ret void
}